target datalayout = "e-m:e-p270:32:32-p271:32:32-p272:64:64-i64:64-i128:128-f80:128-n8:16:32:64-S128"
target triple = "x86_64-pc-linux-gnu"

%struct.gmx_ana_selvalue_t = type { i32, i32, %union.anon, i32 }
%union.anon = type { ptr }
%struct.methoddata_merge = type { %struct.gmx_ana_pos_t, %struct.gmx_ana_pos_t, i32, [4 x i8] }
%struct.gmx_ana_pos_t = type <{ ptr, ptr, ptr, %struct.gmx_ana_indexmap_t, i32, [4 x i8] }>
%struct.gmx_ana_indexmap_t = type { i32, ptr, ptr, %struct.t_blocka, ptr, %struct.t_blocka, i8 }
%struct.t_blocka = type { i32, ptr, i32, ptr, i32, i32 }

; Function Attrs: mustprogress nounwind uwtable
define linkonce_odr noundef i32 @_ZNK13gmx_ana_pos_t5countEv(ptr noundef nonnull align 8 dereferenceable(148) %0) #1 comdat align 2 {
  %2 = alloca ptr, align 8
  store ptr %0, ptr %2, align 8, !tbaa !33
  %3 = load ptr, ptr %2, align 8
  %4 = getelementptr inbounds nuw %struct.gmx_ana_pos_t, ptr %3, i32 0, i32 3
  %5 = getelementptr inbounds nuw %struct.gmx_ana_indexmap_t, ptr %4, i32 0, i32 3
  %6 = getelementptr inbounds nuw %struct.t_blocka, ptr %5, i32 0, i32 0
  %7 = load i32, ptr %6, align 8, !tbaa !56
  ret i32 %7
}

; Function Attrs: mustprogress uwtable
define internal void @_ZL13evaluate_plusRKN3gmx20SelMethodEvalContextEP13gmx_ana_pos_tP18gmx_ana_selvalue_tPv(ptr noundef nonnull align 8 dereferenceable(24) %0, ptr noundef %1, ptr noundef %2, ptr noundef %3) #0 {
  %5 = alloca ptr, align 8
  %6 = alloca ptr, align 8
  %7 = alloca ptr, align 8
  %8 = alloca ptr, align 8
  %9 = alloca ptr, align 8
  %10 = alloca i32, align 4
  %11 = alloca i32, align 4
  store ptr %0, ptr %5, align 8, !tbaa !31
  store ptr %1, ptr %6, align 8, !tbaa !33
  store ptr %2, ptr %7, align 8, !tbaa !26
  store ptr %3, ptr %8, align 8, !tbaa !25
  call void @llvm.lifetime.start.p0(i64 8, ptr %9) #18
  %12 = load ptr, ptr %8, align 8, !tbaa !25
  store ptr %12, ptr %9, align 8, !tbaa !11
  call void @llvm.lifetime.start.p0(i64 4, ptr %10) #18
  call void @llvm.lifetime.start.p0(i64 4, ptr %11) #18
  %13 = load ptr, ptr %7, align 8, !tbaa !26
  %14 = getelementptr inbounds nuw %struct.gmx_ana_selvalue_t, ptr %13, i32 0, i32 2
  %15 = load ptr, ptr %14, align 8, !tbaa !22
  call void @_Z17gmx_ana_pos_emptyP13gmx_ana_pos_t(ptr noundef %15)
  store i32 0, ptr %10, align 4, !tbaa !4
  br label %16

16:                                               ; preds = %39, %4
  %17 = load i32, ptr %10, align 4, !tbaa !4
  %18 = load ptr, ptr %9, align 8, !tbaa !11
  %19 = getelementptr inbounds nuw %struct.methoddata_merge, ptr %18, i32 0, i32 0
  %20 = call noundef i32 @_ZNK13gmx_ana_pos_t5countEv(ptr noundef nonnull align 8 dereferenceable(148) %19)
  %21 = icmp slt i32 %17, %20
  br i1 %21, label %22, label %42

22:                                               ; preds = %16
  %23 = load ptr, ptr %9, align 8, !tbaa !11
  %24 = getelementptr inbounds nuw %struct.methoddata_merge, ptr %23, i32 0, i32 0
  %25 = getelementptr inbounds nuw %struct.gmx_ana_pos_t, ptr %24, i32 0, i32 3
  %26 = getelementptr inbounds nuw %struct.gmx_ana_indexmap_t, ptr %25, i32 0, i32 1
  %27 = load ptr, ptr %26, align 8, !tbaa !35
  %28 = load i32, ptr %10, align 4, !tbaa !4
  %29 = sext i32 %28 to i64
  %30 = getelementptr inbounds i32, ptr %27, i64 %29
  %31 = load i32, ptr %30, align 4, !tbaa !4
  store i32 %31, ptr %11, align 4, !tbaa !4
  %32 = load ptr, ptr %7, align 8, !tbaa !26
  %33 = getelementptr inbounds nuw %struct.gmx_ana_selvalue_t, ptr %32, i32 0, i32 2
  %34 = load ptr, ptr %33, align 8, !tbaa !22
  %35 = load ptr, ptr %9, align 8, !tbaa !11
  %36 = getelementptr inbounds nuw %struct.methoddata_merge, ptr %35, i32 0, i32 0
  %37 = load i32, ptr %10, align 4, !tbaa !4
  %38 = load i32, ptr %11, align 4, !tbaa !4
  call void @_Z18gmx_ana_pos_appendP13gmx_ana_pos_tS0_ii(ptr noundef %34, ptr noundef %36, i32 noundef %37, i32 noundef %38)
  br label %39

39:                                               ; preds = %22
  %40 = load i32, ptr %10, align 4, !tbaa !4
  %41 = add nsw i32 %40, 1
  store i32 %41, ptr %10, align 4, !tbaa !4
  br label %16, !llvm.loop !169

42:                                               ; preds = %16
  store i32 0, ptr %10, align 4, !tbaa !4
  br label %43

43:                                               ; preds = %78, %42
  %44 = load i32, ptr %10, align 4, !tbaa !4
  %45 = load ptr, ptr %9, align 8, !tbaa !11
  %46 = getelementptr inbounds nuw %struct.methoddata_merge, ptr %45, i32 0, i32 1
  %47 = call noundef i32 @_ZNK13gmx_ana_pos_t5countEv(ptr noundef nonnull align 8 dereferenceable(148) %46)
  %48 = icmp slt i32 %44, %47
  br i1 %48, label %49, label %81

49:                                               ; preds = %43
  %50 = load ptr, ptr %9, align 8, !tbaa !11
  %51 = getelementptr inbounds nuw %struct.methoddata_merge, ptr %50, i32 0, i32 1
  %52 = getelementptr inbounds nuw %struct.gmx_ana_pos_t, ptr %51, i32 0, i32 3
  %53 = getelementptr inbounds nuw %struct.gmx_ana_indexmap_t, ptr %52, i32 0, i32 1
  %54 = load ptr, ptr %53, align 8, !tbaa !37
  %55 = load i32, ptr %10, align 4, !tbaa !4
  %56 = sext i32 %55 to i64
  %57 = getelementptr inbounds i32, ptr %54, i64 %56
  %58 = load i32, ptr %57, align 4, !tbaa !4
  store i32 %58, ptr %11, align 4, !tbaa !4
  %59 = load i32, ptr %11, align 4, !tbaa !4
  %60 = icmp ne i32 %59, -1
  br i1 %60, label %61, label %70

61:                                               ; preds = %49
  %62 = load ptr, ptr %9, align 8, !tbaa !11
  %63 = getelementptr inbounds nuw %struct.methoddata_merge, ptr %62, i32 0, i32 0
  %64 = getelementptr inbounds nuw %struct.gmx_ana_pos_t, ptr %63, i32 0, i32 3
  %65 = getelementptr inbounds nuw %struct.gmx_ana_indexmap_t, ptr %64, i32 0, i32 5
  %66 = getelementptr inbounds nuw %struct.t_blocka, ptr %65, i32 0, i32 0
  %67 = load i32, ptr %66, align 8, !tbaa !170
  %68 = load i32, ptr %11, align 4, !tbaa !4
  %69 = add nsw i32 %68, %67
  store i32 %69, ptr %11, align 4, !tbaa !4
  br label %70

70:                                               ; preds = %61, %49
  %71 = load ptr, ptr %7, align 8, !tbaa !26
  %72 = getelementptr inbounds nuw %struct.gmx_ana_selvalue_t, ptr %71, i32 0, i32 2
  %73 = load ptr, ptr %72, align 8, !tbaa !22
  %74 = load ptr, ptr %9, align 8, !tbaa !11
  %75 = getelementptr inbounds nuw %struct.methoddata_merge, ptr %74, i32 0, i32 1
  %76 = load i32, ptr %10, align 4, !tbaa !4
  %77 = load i32, ptr %11, align 4, !tbaa !4
  call void @_Z18gmx_ana_pos_appendP13gmx_ana_pos_tS0_ii(ptr noundef %73, ptr noundef %75, i32 noundef %76, i32 noundef %77)
  br label %78

78:                                               ; preds = %70
  %79 = load i32, ptr %10, align 4, !tbaa !4
  %80 = add nsw i32 %79, 1
  store i32 %80, ptr %10, align 4, !tbaa !4
  br label %43, !llvm.loop !171

81:                                               ; preds = %43
  %82 = load ptr, ptr %7, align 8, !tbaa !26
  %83 = getelementptr inbounds nuw %struct.gmx_ana_selvalue_t, ptr %82, i32 0, i32 2
  %84 = load ptr, ptr %83, align 8, !tbaa !22
  call void @_Z25gmx_ana_pos_append_finishP13gmx_ana_pos_t(ptr noundef %84)
  call void @llvm.lifetime.end.p0(i64 4, ptr %11) #18
  call void @llvm.lifetime.end.p0(i64 4, ptr %10) #18
  call void @llvm.lifetime.end.p0(i64 8, ptr %9) #18
  ret void
}