; Function Attrs: mustprogress uwtable
define internal void @_ZL13evaluate_plusRKN3gmx20SelMethodEvalContextEP13gmx_ana_pos_tP18gmx_ana_selvalue_tPv(ptr nonnull readnone align 8 captures(none) %0, ptr readnone captures(none) %1, ptr noundef readonly captures(none) %2, ptr noundef %3) #0 {
  %5 = getelementptr inbounds nuw i8, ptr %2, i64 8
  %6 = load ptr, ptr %5, align 8, !tbaa !17
  tail call void @_Z17gmx_ana_pos_emptyP13gmx_ana_pos_t(ptr noundef %6)
  %7 = getelementptr inbounds nuw i8, ptr %3, i64 48
  %8 = load i32, ptr %7, align 8, !tbaa !23
  %9 = icmp sgt i32 %8, 0
  br i1 %9, label %.lr.ph, label %.preheader

.lr.ph:                                           ; preds = %4
  %10 = getelementptr inbounds nuw i8, ptr %3, i64 32
  br label %17

.preheader:                                       ; preds = %17, %4
  %11 = getelementptr inbounds nuw i8, ptr %3, i64 152
  %12 = getelementptr inbounds nuw i8, ptr %3, i64 200
  %13 = load i32, ptr %12, align 8, !tbaa !23
  %14 = icmp sgt i32 %13, 0
  br i1 %14, label %.lr.ph28, label %._crit_edge

.lr.ph28:                                         ; preds = %.preheader
  %15 = getelementptr inbounds nuw i8, ptr %3, i64 184
  %16 = getelementptr inbounds nuw i8, ptr %3, i64 96
  br label %26

17:                                               ; preds = %.lr.ph, %17
  %indvars.iv = phi i64 [ 0, %.lr.ph ], [ %indvars.iv.next, %17 ]
  %18 = load ptr, ptr %10, align 8, !tbaa !34
  %19 = getelementptr inbounds nuw i32, ptr %18, i64 %indvars.iv
  %20 = load i32, ptr %19, align 4, !tbaa !22
  %21 = load ptr, ptr %5, align 8, !tbaa !17
  %22 = trunc nuw nsw i64 %indvars.iv to i32
  tail call void @_Z18gmx_ana_pos_appendP13gmx_ana_pos_tS0_ii(ptr noundef %21, ptr noundef nonnull %3, i32 noundef %22, i32 noundef %20)
  %indvars.iv.next = add nuw nsw i64 %indvars.iv, 1
  %23 = load i32, ptr %7, align 8, !tbaa !23
  %24 = sext i32 %23 to i64
  %25 = icmp slt i64 %indvars.iv.next, %24
  br i1 %25, label %17, label %.preheader, !llvm.loop !71

26:                                               ; preds = %.lr.ph28, %33
  %indvars.iv30 = phi i64 [ 0, %.lr.ph28 ], [ %indvars.iv.next31, %33 ]
  %27 = load ptr, ptr %15, align 8, !tbaa !36
  %28 = getelementptr inbounds nuw i32, ptr %27, i64 %indvars.iv30
  %29 = load i32, ptr %28, align 4, !tbaa !22
  %.not = icmp eq i32 %29, -1
  br i1 %.not, label %33, label %30

30:                                               ; preds = %26
  %31 = load i32, ptr %16, align 8, !tbaa !72
  %32 = add nsw i32 %31, %29
  br label %33

33:                                               ; preds = %30, %26
  %.0 = phi i32 [ %32, %30 ], [ -1, %26 ]
  %34 = load ptr, ptr %5, align 8, !tbaa !17
  %35 = trunc nuw nsw i64 %indvars.iv30 to i32
  tail call void @_Z18gmx_ana_pos_appendP13gmx_ana_pos_tS0_ii(ptr noundef %34, ptr noundef nonnull %11, i32 noundef %35, i32 noundef %.0)
  %indvars.iv.next31 = add nuw nsw i64 %indvars.iv30, 1
  %36 = load i32, ptr %12, align 8, !tbaa !23
  %37 = sext i32 %36 to i64
  %38 = icmp slt i64 %indvars.iv.next31, %37
  br i1 %38, label %26, label %._crit_edge, !llvm.loop !73

._crit_edge:                                      ; preds = %33, %.preheader
  %39 = load ptr, ptr %5, align 8, !tbaa !17
  tail call void @_Z25gmx_ana_pos_append_finishP13gmx_ana_pos_t(ptr noundef %39)
  ret void
}